target datalayout = "e-m:e-p270:32:32-p271:32:32-p272:64:64-i64:64-i128:128-f80:128-n8:16:32:64-S128"
target triple = "x86_64-unknown-linux-gnu"

%"class.google::protobuf::io::ZeroCopyInputStream" = type { ptr }
%"class.absl::lts_20230802::log_internal::LogMessageFatal" = type { %"class.absl::lts_20230802::log_internal::LogMessage" }
%"class.absl::lts_20230802::log_internal::LogMessage" = type { %"class.absl::lts_20230802::base_internal::ErrnoSaver", %"class.std::unique_ptr" }
%"class.absl::lts_20230802::base_internal::ErrnoSaver" = type { i32 }
%"class.std::unique_ptr" = type { %"struct.std::__uniq_ptr_data" }
%"struct.std::__uniq_ptr_data" = type { %"class.std::__uniq_ptr_impl" }
%"class.std::__uniq_ptr_impl" = type { %"class.std::tuple" }
%"class.std::tuple" = type { %"struct.std::_Tuple_impl" }
%"struct.std::_Tuple_impl" = type { %"struct.std::_Head_base.1" }
%"struct.std::_Head_base.1" = type { ptr }
%"class.std::basic_string_view" = type { i64, ptr }
%"class.absl::lts_20230802::Cord::ChunkIterator" = type { %"class.std::basic_string_view", ptr, i64, %"class.absl::lts_20230802::cord_internal::CordRepBtreeReader" }
%"class.absl::lts_20230802::cord_internal::CordRepBtreeReader" = type { i64, %"class.absl::lts_20230802::cord_internal::CordRepBtreeNavigator" }
%"class.absl::lts_20230802::cord_internal::CordRepBtreeNavigator" = type { i32, [12 x i8], [12 x ptr] }
%"class.google::protobuf::io::CordInputStream" = type { %"class.google::protobuf::io::ZeroCopyInputStream", %"class.absl::lts_20230802::Cord::CharIterator", i64, i64, ptr, i64, i64 }
%"class.absl::lts_20230802::Cord::CharIterator" = type { %"class.absl::lts_20230802::Cord::ChunkIterator" }

@.str.1 = private unnamed_addr constant [148 x i8] c"generated/home/dtcxzyw/WorkSpace/Projects/compilers/llvm-opt-benchmark/bench/protobuf/protobuf/src/google/protobuf/io/zero_copy_stream_impl_lite.cc\00", align 1
@.str.15 = private unnamed_addr constant [49 x i8] c"static_cast<size_t>(count) <= size_ - available_\00", align 1

; Function Attrs: mustprogress nounwind uwtable
define linkonce_odr hidden noundef nonnull align 8 dereferenceable(16) ptr @_ZN4absl12lts_2023080212log_internal10LogMessage14InternalStreamEv(ptr noundef nonnull align 8 dereferenceable(16) %this) #4 comdat align 2 {
entry:
  %this.addr = alloca ptr, align 8
  store ptr %this, ptr %this.addr, align 8
  %this1 = load ptr, ptr %this.addr, align 8
  ret ptr %this1
}

; Function Attrs: mustprogress uwtable
define linkonce_odr hidden noundef ptr @_ZN4absl12lts_2023080212log_internal12Check_LEImplImmEEPNSt7__cxx1112basic_stringIcSt11char_traitsIcESaIcEEERKT_RKT0_PKc(ptr noundef nonnull align 8 dereferenceable(8) %v1, ptr noundef nonnull align 8 dereferenceable(8) %v2, ptr noundef %exprtext) #5 comdat {
entry:
  %v1.addr = alloca ptr, align 8
  %v2.addr = alloca ptr, align 8
  %exprtext.addr = alloca ptr, align 8
  store ptr %v1, ptr %v1.addr, align 8
  store ptr %v2, ptr %v2.addr, align 8
  store ptr %exprtext, ptr %exprtext.addr, align 8
  %0 = load ptr, ptr %v1.addr, align 8
  %1 = load i64, ptr %0, align 8
  %2 = load ptr, ptr %v2.addr, align 8
  %3 = load i64, ptr %2, align 8
  %cmp = icmp ule i64 %1, %3
  br i1 %cmp, label %cond.true, label %cond.false

cond.true:                                        ; preds = %entry
  br label %cond.end

cond.false:                                       ; preds = %entry
  %4 = load ptr, ptr %v1.addr, align 8
  %5 = load i64, ptr %4, align 8
  %6 = load ptr, ptr %v2.addr, align 8
  %7 = load i64, ptr %6, align 8
  %8 = load ptr, ptr %exprtext.addr, align 8
  %call = call noundef nonnull ptr @_ZN4absl12lts_2023080212log_internal17MakeCheckOpStringImmEEPNSt7__cxx1112basic_stringIcSt11char_traitsIcESaIcEEET_T0_PKc(i64 noundef %5, i64 noundef %7, ptr noundef %8)
  br label %cond.end

cond.end:                                         ; preds = %cond.false, %cond.true
  %cond = phi ptr [ null, %cond.true ], [ %call, %cond.false ]
  ret ptr %cond
}

; Function Attrs: mustprogress nounwind uwtable
define linkonce_odr hidden noundef i64 @_ZN4absl12lts_2023080212log_internal21GetReferenceableValueEm(i64 noundef %t) #4 comdat {
entry:
  %t.addr = alloca i64, align 8
  store i64 %t, ptr %t.addr, align 8
  %0 = load i64, ptr %t.addr, align 8
  ret i64 %0
}

; Function Attrs: mustprogress uwtable
define void @_ZN6google8protobuf2io15CordInputStream6BackUpEi(ptr noundef nonnull align 8 dereferenceable(200) %this, i32 noundef %count) unnamed_addr #5 align 2 personality ptr @__gxx_personality_v0 {
entry:
  %this.addr = alloca ptr, align 8
  %count.addr = alloca i32, align 4
  %absl_log_internal_check_op_result = alloca ptr, align 8
  %ref.tmp = alloca i64, align 8
  %ref.tmp2 = alloca i64, align 8
  %ref.tmp5 = alloca %"class.absl::lts_20230802::log_internal::LogMessageFatal", align 8
  %agg.tmp = alloca %"class.std::basic_string_view", align 8
  %exn.slot = alloca ptr, align 8
  %ehselector.slot = alloca i32, align 4
  store ptr %this, ptr %this.addr, align 8
  store i32 %count, ptr %count.addr, align 4
  %this1 = load ptr, ptr %this.addr, align 8
  br label %while.cond

while.cond:                                       ; preds = %entry
  %0 = load i32, ptr %count.addr, align 4
  %conv = sext i32 %0 to i64
  %call = call noundef i64 @_ZN4absl12lts_2023080212log_internal21GetReferenceableValueEm(i64 noundef %conv)
  store i64 %call, ptr %ref.tmp, align 8
  %size_ = getelementptr inbounds %"class.google::protobuf::io::CordInputStream", ptr %this1, i32 0, i32 5
  %1 = load i64, ptr %size_, align 8
  %available_ = getelementptr inbounds %"class.google::protobuf::io::CordInputStream", ptr %this1, i32 0, i32 6
  %2 = load i64, ptr %available_, align 8
  %sub = sub i64 %1, %2
  %call3 = call noundef i64 @_ZN4absl12lts_2023080212log_internal21GetReferenceableValueEm(i64 noundef %sub)
  store i64 %call3, ptr %ref.tmp2, align 8
  %call4 = call noundef ptr @_ZN4absl12lts_2023080212log_internal12Check_LEImplImmEEPNSt7__cxx1112basic_stringIcSt11char_traitsIcESaIcEEERKT_RKT0_PKc(ptr noundef nonnull align 8 dereferenceable(8) %ref.tmp, ptr noundef nonnull align 8 dereferenceable(8) %ref.tmp2, ptr noundef @.str.15)
  store ptr %call4, ptr %absl_log_internal_check_op_result, align 8
  %3 = load ptr, ptr %absl_log_internal_check_op_result, align 8
  %tobool = icmp ne ptr %3, null
  br i1 %tobool, label %while.body, label %while.end

while.body:                                       ; preds = %while.cond
  %4 = load ptr, ptr %absl_log_internal_check_op_result, align 8
  %call6 = call { i64, ptr } @_ZNKSt7__cxx1112basic_stringIcSt11char_traitsIcESaIcEEcvSt17basic_string_viewIcS2_EEv(ptr noundef nonnull align 8 dereferenceable(32) %4) #3
  %5 = getelementptr inbounds { i64, ptr }, ptr %agg.tmp, i32 0, i32 0
  %6 = extractvalue { i64, ptr } %call6, 0
  store i64 %6, ptr %5, align 8
  %7 = getelementptr inbounds { i64, ptr }, ptr %agg.tmp, i32 0, i32 1
  %8 = extractvalue { i64, ptr } %call6, 1
  store ptr %8, ptr %7, align 8
  %9 = getelementptr inbounds { i64, ptr }, ptr %agg.tmp, i32 0, i32 0
  %10 = load i64, ptr %9, align 8
  %11 = getelementptr inbounds { i64, ptr }, ptr %agg.tmp, i32 0, i32 1
  %12 = load ptr, ptr %11, align 8
  call void @_ZN4absl12lts_2023080212log_internal15LogMessageFatalC1EPKciSt17basic_string_viewIcSt11char_traitsIcEE(ptr noundef nonnull align 8 dereferenceable(16) %ref.tmp5, ptr noundef @.str.1, i32 noundef 513, i64 %10, ptr %12) #15
  %call7 = invoke noundef nonnull align 8 dereferenceable(16) ptr @_ZN4absl12lts_2023080212log_internal10LogMessage14InternalStreamEv(ptr noundef nonnull align 8 dereferenceable(16) %ref.tmp5)
          to label %invoke.cont unwind label %lpad

invoke.cont:                                      ; preds = %while.body
  call void @_ZN4absl12lts_2023080212log_internal15LogMessageFatalD1Ev(ptr noundef nonnull align 8 dereferenceable(16) %ref.tmp5) #16
  unreachable

lpad:                                             ; preds = %while.body
  %13 = landingpad { ptr, i32 }
          cleanup
  %14 = extractvalue { ptr, i32 } %13, 0
  store ptr %14, ptr %exn.slot, align 8
  %15 = extractvalue { ptr, i32 } %13, 1
  store i32 %15, ptr %ehselector.slot, align 4
  call void @_ZN4absl12lts_2023080212log_internal15LogMessageFatalD1Ev(ptr noundef nonnull align 8 dereferenceable(16) %ref.tmp5) #16
  unreachable

16:                                               ; No predecessors!
  br label %eh.resume

while.end:                                        ; preds = %while.cond
  %17 = load i32, ptr %count.addr, align 4
  %conv8 = sext i32 %17 to i64
  %available_9 = getelementptr inbounds %"class.google::protobuf::io::CordInputStream", ptr %this1, i32 0, i32 6
  %18 = load i64, ptr %available_9, align 8
  %add = add i64 %18, %conv8
  store i64 %add, ptr %available_9, align 8
  %19 = load i32, ptr %count.addr, align 4
  %conv10 = sext i32 %19 to i64
  %bytes_remaining_ = getelementptr inbounds %"class.google::protobuf::io::CordInputStream", ptr %this1, i32 0, i32 3
  %20 = load i64, ptr %bytes_remaining_, align 8
  %add11 = add i64 %20, %conv10
  store i64 %add11, ptr %bytes_remaining_, align 8
  ret void

eh.resume:                                        ; preds = %16
  %exn = load ptr, ptr %exn.slot, align 8
  %sel = load i32, ptr %ehselector.slot, align 4
  %lpad.val = insertvalue { ptr, i32 } poison, ptr %exn, 0
  %lpad.val12 = insertvalue { ptr, i32 } %lpad.val, i32 %sel, 1
  resume { ptr, i32 } %lpad.val12
}