; Function Attrs: mustprogress uwtable
define void @_ZN6google8protobuf2io15CordInputStream6BackUpEi(ptr nocapture noundef nonnull align 8 dereferenceable(200) %this, i32 noundef %count) unnamed_addr #5 align 2 personality ptr @__gxx_personality_v0 {
entry:
  %ref.tmp5 = alloca %"class.absl::lts_20230802::log_internal::LogMessageFatal", align 8
  %conv = sext i32 %count to i64
  %size_ = getelementptr inbounds i8, ptr %this, i64 184
  %0 = load i64, ptr %size_, align 8
  %available_ = getelementptr inbounds i8, ptr %this, i64 192
  %1 = load i64, ptr %available_, align 8
  %sub = sub i64 %0, %1
  %cmp.not.i = icmp ult i64 %sub, %conv
  br i1 %cmp.not.i, label %while.body, label %while.end

while.body:                                       ; preds = %entry
  %call.i = tail call noundef nonnull ptr @_ZN4absl12lts_2023080212log_internal17MakeCheckOpStringImmEEPNSt7__cxx1112basic_stringIcSt11char_traitsIcESaIcEEET_T0_PKc(i64 noundef %conv, i64 noundef %sub, ptr noundef nonnull @.str.15)
  %call6 = tail call { i64, ptr } @_ZNKSt7__cxx1112basic_stringIcSt11char_traitsIcESaIcEEcvSt17basic_string_viewIcS2_EEv(ptr noundef nonnull align 8 dereferenceable(32) %call.i) #25
  %2 = extractvalue { i64, ptr } %call6, 0
  %3 = extractvalue { i64, ptr } %call6, 1
  call void @_ZN4absl12lts_2023080212log_internal15LogMessageFatalC1EPKciSt17basic_string_viewIcSt11char_traitsIcEE(ptr noundef nonnull align 8 dereferenceable(16) %ref.tmp5, ptr noundef nonnull @.str.1, i32 noundef 513, i64 %2, ptr %3) #26
  call void @_ZN4absl12lts_2023080212log_internal15LogMessageFatalD1Ev(ptr noundef nonnull align 8 dereferenceable(16) %ref.tmp5) #27
  unreachable

while.end:                                        ; preds = %entry
  %add = add i64 %1, %conv
  store i64 %add, ptr %available_, align 8
  %bytes_remaining_ = getelementptr inbounds i8, ptr %this, i64 168
  %4 = load i64, ptr %bytes_remaining_, align 8
  %add11 = add i64 %4, %conv
  store i64 %add11, ptr %bytes_remaining_, align 8
  ret void
}